target datalayout = "e-m:e-p270:32:32-p271:32:32-p272:64:64-i64:64-i128:128-f80:128-n8:16:32:64-S128"
target triple = "x86_64-pc-linux-gnu"

%struct.AVFilterContext = type { ptr, ptr, ptr, ptr, ptr, i32, ptr, ptr, i32, ptr, ptr, i32, i32, ptr, ptr, ptr, ptr, i32, ptr, i32, i32 }
%struct.ADenormContext = type { ptr, double, double, i32, i64, [4 x ptr] }

; Function Attrs: nounwind uwtable
define internal void @dc_denorm_fltp(ptr noundef %0, ptr noundef %1, ptr noundef %2, i32 noundef %3) #1 {
  %5 = alloca ptr, align 8
  %6 = alloca ptr, align 8
  %7 = alloca ptr, align 8
  %8 = alloca i32, align 4
  %9 = alloca ptr, align 8
  %10 = alloca ptr, align 8
  %11 = alloca ptr, align 8
  %12 = alloca float, align 4
  %13 = alloca i32, align 4
  store ptr %0, ptr %5, align 8, !tbaa !23
  store ptr %1, ptr %6, align 8, !tbaa !52
  store ptr %2, ptr %7, align 8, !tbaa !52
  store i32 %3, ptr %8, align 4, !tbaa !53
  call void @llvm.lifetime.start.p0(i64 8, ptr %9) #6
  %14 = load ptr, ptr %5, align 8, !tbaa !23
  %15 = getelementptr inbounds nuw %struct.AVFilterContext, ptr %14, i32 0, i32 9
  %16 = load ptr, ptr %15, align 8, !tbaa !24
  store ptr %16, ptr %9, align 8, !tbaa !34
  call void @llvm.lifetime.start.p0(i64 8, ptr %10) #6
  %17 = load ptr, ptr %7, align 8, !tbaa !52
  store ptr %17, ptr %10, align 8, !tbaa !64
  call void @llvm.lifetime.start.p0(i64 8, ptr %11) #6
  %18 = load ptr, ptr %6, align 8, !tbaa !52
  store ptr %18, ptr %11, align 8, !tbaa !64
  call void @llvm.lifetime.start.p0(i64 4, ptr %12) #6
  %19 = load ptr, ptr %9, align 8, !tbaa !34
  %20 = getelementptr inbounds nuw %struct.ADenormContext, ptr %19, i32 0, i32 1
  %21 = load double, ptr %20, align 8, !tbaa !46
  %22 = fptrunc nsz double %21 to float
  store float %22, ptr %12, align 4, !tbaa !66
  call void @llvm.lifetime.start.p0(i64 4, ptr %13) #6
  store i32 0, ptr %13, align 4, !tbaa !53
  br label %23

23:                                               ; preds = %40, %4
  %24 = load i32, ptr %13, align 4, !tbaa !53
  %25 = load i32, ptr %8, align 4, !tbaa !53
  %26 = icmp slt i32 %24, %25
  br i1 %26, label %28, label %27

27:                                               ; preds = %23
  call void @llvm.lifetime.end.p0(i64 4, ptr %13) #6
  br label %43

28:                                               ; preds = %23
  %29 = load ptr, ptr %10, align 8, !tbaa !64
  %30 = load i32, ptr %13, align 4, !tbaa !53
  %31 = sext i32 %30 to i64
  %32 = getelementptr inbounds float, ptr %29, i64 %31
  %33 = load float, ptr %32, align 4, !tbaa !66
  %34 = load float, ptr %12, align 4, !tbaa !66
  %35 = fadd nsz float %33, %34
  %36 = load ptr, ptr %11, align 8, !tbaa !64
  %37 = load i32, ptr %13, align 4, !tbaa !53
  %38 = sext i32 %37 to i64
  %39 = getelementptr inbounds float, ptr %36, i64 %38
  store float %35, ptr %39, align 4, !tbaa !66
  br label %40

40:                                               ; preds = %28
  %41 = load i32, ptr %13, align 4, !tbaa !53
  %42 = add nsw i32 %41, 1
  store i32 %42, ptr %13, align 4, !tbaa !53
  br label %23, !llvm.loop !68

43:                                               ; preds = %27
  call void @llvm.lifetime.end.p0(i64 4, ptr %12) #6
  call void @llvm.lifetime.end.p0(i64 8, ptr %11) #6
  call void @llvm.lifetime.end.p0(i64 8, ptr %10) #6
  call void @llvm.lifetime.end.p0(i64 8, ptr %9) #6
  ret void
}